; Function Attrs: nofree norecurse nosync nounwind memory(argmem: write) uwtable
define internal void @dc_128_8x8_c(ptr noundef writeonly captures(none) %0, i64 noundef %1, ptr readnone captures(none) %2, ptr readnone captures(none) %3) #5 {
  %5 = lshr i64 %1, 1
  br label %6

6:                                                ; preds = %4, %6
  %.011 = phi i32 [ 0, %4 ], [ %9, %6 ]
  %.0910 = phi ptr [ %0, %4 ], [ %8, %6 ]
  store i64 576469548530665472, ptr %.0910, align 8, !tbaa !12
  %7 = getelementptr inbounds nuw i8, ptr %.0910, i64 8
  store i64 576469548530665472, ptr %7, align 8, !tbaa !12
  %8 = getelementptr inbounds nuw i16, ptr %.0910, i64 %5
  %9 = add nuw nsw i32 %.011, 1
  %exitcond.not = icmp eq i32 %9, 8
  br i1 %exitcond.not, label %10, label %6, !llvm.loop !14

10:                                               ; preds = %6
  ret void
}